target datalayout = "e-m:e-p270:32:32-p271:32:32-p272:64:64-i64:64-i128:128-f80:128-n8:16:32:64-S128"
target triple = "x86_64-pc-linux-gnu"

%"struct.vcpkg::StringView" = type { ptr, i64 }
%"struct.vcpkg::Triplet" = type { ptr }
%"struct.vcpkg::Optional" = type { %"struct.vcpkg::details::OptionalStorage" }
%"struct.vcpkg::details::OptionalStorage" = type { ptr }
%"struct.vcpkg::Span" = type { ptr, i64 }
%"struct.vcpkg::LineInfo" = type { i32, ptr }

@.str = private unnamed_addr constant [118 x i8] c"generated/home/dtcxzyw/WorkSpace/Projects/compilers/llvm-opt-benchmark/bench/vcpkg/vcpkg-tool/src/vcpkg/cmakevars.cpp\00", align 1
@.str.1 = private unnamed_addr constant [15 x i8] c"Value was null\00", align 1

; Function Attrs: mustprogress nounwind uwtable
define linkonce_odr dso_local noundef nonnull align 8 dereferenceable(56) ptr @_ZNK5vcpkg7details15OptionalStorageIRKSt13unordered_mapINSt7__cxx1112basic_stringIcSt11char_traitsIcESaIcEEES8_St4hashIS8_ESt8equal_toIS8_ESaISt4pairIKS8_S8_EEELb1EE5valueEv(ptr noundef nonnull align 8 dereferenceable(8) %0) #1 comdat align 2 {
  %2 = alloca ptr, align 8
  store ptr %0, ptr %2, align 8
  %3 = load ptr, ptr %2, align 8
  %4 = getelementptr inbounds %"struct.vcpkg::details::OptionalStorage", ptr %3, i32 0, i32 0
  %5 = load ptr, ptr %4, align 8
  ret ptr %5
}

; Function Attrs: mustprogress nounwind uwtable
define linkonce_odr dso_local void @_ZN5vcpkg10StringViewC2EPKc(ptr noundef nonnull align 8 dereferenceable(16) %0, ptr noundef %1) unnamed_addr #1 comdat align 2 {
  %3 = alloca ptr, align 8
  %4 = alloca ptr, align 8
  store ptr %0, ptr %3, align 8
  store ptr %1, ptr %4, align 8
  %5 = load ptr, ptr %3, align 8
  %6 = getelementptr inbounds %"struct.vcpkg::StringView", ptr %5, i32 0, i32 0
  %7 = load ptr, ptr %4, align 8
  store ptr %7, ptr %6, align 8
  %8 = getelementptr inbounds %"struct.vcpkg::StringView", ptr %5, i32 0, i32 1
  %9 = load ptr, ptr %4, align 8
  %10 = call i64 @strlen(ptr noundef %9) #19
  store i64 %10, ptr %8, align 8
  ret void
}

; Function Attrs: mustprogress nounwind uwtable
define linkonce_odr dso_local noundef nonnull align 8 dereferenceable(56) ptr @_ZNR5vcpkg8OptionalIRKSt13unordered_mapINSt7__cxx1112basic_stringIcSt11char_traitsIcESaIcEEES7_St4hashIS7_ESt8equal_toIS7_ESaISt4pairIKS7_S7_EEEE13value_or_exitERKNS_8LineInfoE(ptr noundef nonnull align 8 dereferenceable(8) %0, ptr noundef nonnull align 8 dereferenceable(16) %1) #1 comdat align 2 personality ptr @__gxx_personality_v0 {
  %3 = alloca ptr, align 8
  %4 = alloca ptr, align 8
  %5 = alloca %"struct.vcpkg::StringView", align 8
  store ptr %0, ptr %3, align 8
  store ptr %1, ptr %4, align 8
  %6 = load ptr, ptr %3, align 8
  %7 = load ptr, ptr %4, align 8
  %8 = call noundef zeroext i1 @_ZNK5vcpkg7details15OptionalStorageIRKSt13unordered_mapINSt7__cxx1112basic_stringIcSt11char_traitsIcESaIcEEES8_St4hashIS8_ESt8equal_toIS8_ESaISt4pairIKS8_S8_EEELb1EE9has_valueEv(ptr noundef nonnull align 8 dereferenceable(8) %6) #15
  call void @_ZN5vcpkg10StringViewC2EPKc(ptr noundef nonnull align 8 dereferenceable(16) %5, ptr noundef @.str.1) #15
  %9 = getelementptr inbounds { ptr, i64 }, ptr %5, i32 0, i32 0
  %10 = load ptr, ptr %9, align 8
  %11 = getelementptr inbounds { ptr, i64 }, ptr %5, i32 0, i32 1
  %12 = load i64, ptr %11, align 8
  invoke void @_ZN5vcpkg6Checks10check_exitERKNS_8LineInfoEbNS_10StringViewE(ptr noundef nonnull align 8 dereferenceable(16) %7, i1 noundef zeroext %8, ptr %10, i64 %12)
          to label %13 unwind label %15

13:                                               ; preds = %2
  %14 = call noundef nonnull align 8 dereferenceable(56) ptr @_ZNK5vcpkg7details15OptionalStorageIRKSt13unordered_mapINSt7__cxx1112basic_stringIcSt11char_traitsIcESaIcEEES8_St4hashIS8_ESt8equal_toIS8_ESaISt4pairIKS8_S8_EEELb1EE5valueEv(ptr noundef nonnull align 8 dereferenceable(8) %6) #15
  ret ptr %14

15:                                               ; preds = %2
  %16 = landingpad { ptr, i32 }
          catch ptr null
  %17 = extractvalue { ptr, i32 } %16, 0
  call void @__clang_call_terminate(ptr %17) #16
  unreachable
}

; Function Attrs: mustprogress nounwind uwtable
define linkonce_odr dso_local void @_ZN5vcpkg4SpanIKNS_11PackageSpecEEC2EPS2_m(ptr noundef nonnull align 8 dereferenceable(16) %0, ptr noundef %1, i64 noundef %2) unnamed_addr #1 comdat align 2 {
  %4 = alloca ptr, align 8
  %5 = alloca ptr, align 8
  %6 = alloca i64, align 8
  store ptr %0, ptr %4, align 8
  store ptr %1, ptr %5, align 8
  store i64 %2, ptr %6, align 8
  %7 = load ptr, ptr %4, align 8
  %8 = getelementptr inbounds %"struct.vcpkg::Span", ptr %7, i32 0, i32 0
  %9 = load ptr, ptr %5, align 8
  store ptr %9, ptr %8, align 8
  %10 = getelementptr inbounds %"struct.vcpkg::Span", ptr %7, i32 0, i32 1
  %11 = load i64, ptr %6, align 8
  store i64 %11, ptr %10, align 8
  ret void
}

; Function Attrs: mustprogress nounwind uwtable
define linkonce_odr dso_local noundef zeroext i1 @_ZNK5vcpkg7details15OptionalStorageIRKSt13unordered_mapINSt7__cxx1112basic_stringIcSt11char_traitsIcESaIcEEES8_St4hashIS8_ESt8equal_toIS8_ESaISt4pairIKS8_S8_EEELb1EE9has_valueEv(ptr noundef nonnull align 8 dereferenceable(8) %0) #1 comdat align 2 {
  %2 = alloca ptr, align 8
  store ptr %0, ptr %2, align 8
  %3 = load ptr, ptr %2, align 8
  %4 = getelementptr inbounds %"struct.vcpkg::details::OptionalStorage", ptr %3, i32 0, i32 0
  %5 = load ptr, ptr %4, align 8
  %6 = icmp ne ptr %5, null
  ret i1 %6
}

; Function Attrs: mustprogress uwtable
define dso_local noundef nonnull align 8 dereferenceable(56) ptr @_ZNK5vcpkg9CMakeVars16CMakeVarProvider25get_or_load_dep_info_varsB5cxx11ERKNS_11PackageSpecENS_7TripletE(ptr noundef nonnull align 8 dereferenceable(8) %0, ptr noundef nonnull align 8 dereferenceable(40) %1, ptr %2) #0 align 2 {
  %4 = alloca %"struct.vcpkg::Triplet", align 8
  %5 = alloca ptr, align 8
  %6 = alloca ptr, align 8
  %7 = alloca %"struct.vcpkg::Optional", align 8
  %8 = alloca %"struct.vcpkg::Span", align 8
  %9 = alloca %"struct.vcpkg::Triplet", align 8
  %10 = alloca %"struct.vcpkg::Optional", align 8
  %11 = alloca %"struct.vcpkg::LineInfo", align 8
  %12 = getelementptr inbounds %"struct.vcpkg::Triplet", ptr %4, i32 0, i32 0
  store ptr %2, ptr %12, align 8
  store ptr %0, ptr %5, align 8
  store ptr %1, ptr %6, align 8
  %13 = load ptr, ptr %5, align 8
  %14 = load ptr, ptr %6, align 8
  %15 = load ptr, ptr %13, align 8
  %16 = getelementptr inbounds ptr, ptr %15, i64 3
  %17 = load ptr, ptr %16, align 8
  %18 = call ptr %17(ptr noundef nonnull align 8 dereferenceable(8) %13, ptr noundef nonnull align 8 dereferenceable(40) %14)
  %19 = getelementptr inbounds %"struct.vcpkg::Optional", ptr %7, i32 0, i32 0
  %20 = getelementptr inbounds %"struct.vcpkg::details::OptionalStorage", ptr %19, i32 0, i32 0
  store ptr %18, ptr %20, align 8
  %21 = call noundef zeroext i1 @_ZNK5vcpkg7details15OptionalStorageIRKSt13unordered_mapINSt7__cxx1112basic_stringIcSt11char_traitsIcESaIcEEES8_St4hashIS8_ESt8equal_toIS8_ESaISt4pairIKS8_S8_EEELb1EE9has_valueEv(ptr noundef nonnull align 8 dereferenceable(8) %7) #15
  br i1 %21, label %40, label %22

22:                                               ; preds = %3
  %23 = load ptr, ptr %6, align 8
  call void @_ZN5vcpkg4SpanIKNS_11PackageSpecEEC2EPS2_m(ptr noundef nonnull align 8 dereferenceable(16) %8, ptr noundef %23, i64 noundef 1) #15
  call void @llvm.memcpy.p0.p0.i64(ptr align 8 %9, ptr align 8 %4, i64 8, i1 false)
  %24 = getelementptr inbounds { ptr, i64 }, ptr %8, i32 0, i32 0
  %25 = load ptr, ptr %24, align 8
  %26 = getelementptr inbounds { ptr, i64 }, ptr %8, i32 0, i32 1
  %27 = load i64, ptr %26, align 8
  %28 = getelementptr inbounds %"struct.vcpkg::Triplet", ptr %9, i32 0, i32 0
  %29 = load ptr, ptr %28, align 8
  %30 = load ptr, ptr %13, align 8
  %31 = getelementptr inbounds ptr, ptr %30, i64 6
  %32 = load ptr, ptr %31, align 8
  call void %32(ptr noundef nonnull align 8 dereferenceable(8) %13, ptr %25, i64 %27, ptr %29)
  %33 = load ptr, ptr %6, align 8
  %34 = load ptr, ptr %13, align 8
  %35 = getelementptr inbounds ptr, ptr %34, i64 3
  %36 = load ptr, ptr %35, align 8
  %37 = call ptr %36(ptr noundef nonnull align 8 dereferenceable(8) %13, ptr noundef nonnull align 8 dereferenceable(40) %33)
  %38 = getelementptr inbounds %"struct.vcpkg::Optional", ptr %10, i32 0, i32 0
  %39 = getelementptr inbounds %"struct.vcpkg::details::OptionalStorage", ptr %38, i32 0, i32 0
  store ptr %37, ptr %39, align 8
  call void @llvm.memcpy.p0.p0.i64(ptr align 8 %7, ptr align 8 %10, i64 8, i1 false)
  br label %40

40:                                               ; preds = %22, %3
  %41 = getelementptr inbounds %"struct.vcpkg::LineInfo", ptr %11, i32 0, i32 0
  store i32 26, ptr %41, align 8
  %42 = getelementptr inbounds %"struct.vcpkg::LineInfo", ptr %11, i32 0, i32 1
  store ptr @.str, ptr %42, align 8
  %43 = call noundef nonnull align 8 dereferenceable(56) ptr @_ZNR5vcpkg8OptionalIRKSt13unordered_mapINSt7__cxx1112basic_stringIcSt11char_traitsIcESaIcEEES7_St4hashIS7_ESt8equal_toIS7_ESaISt4pairIKS7_S7_EEEE13value_or_exitERKNS_8LineInfoE(ptr noundef nonnull align 8 dereferenceable(8) %7, ptr noundef nonnull align 8 dereferenceable(16) %11) #15
  ret ptr %43
}