; Function Attrs: mustprogress uwtable
define dso_local noundef nonnull align 8 dereferenceable(56) ptr @_ZNK5vcpkg9CMakeVars16CMakeVarProvider25get_or_load_dep_info_varsB5cxx11ERKNS_11PackageSpecENS_7TripletE(ptr noundef nonnull align 8 dereferenceable(8) %0, ptr noundef nonnull align 8 dereferenceable(40) %1, ptr %2) local_unnamed_addr #0 align 2 personality ptr @__gxx_personality_v0 {
  %4 = alloca %"struct.vcpkg::LineInfo", align 8
  %5 = load ptr, ptr %0, align 8
  %6 = getelementptr inbounds i8, ptr %5, i64 24
  %7 = load ptr, ptr %6, align 8
  %8 = tail call ptr %7(ptr noundef nonnull align 8 dereferenceable(8) %0, ptr noundef nonnull align 8 dereferenceable(40) %1)
  %.not = icmp eq ptr %8, null
  br i1 %.not, label %9, label %17

9:                                                ; preds = %3
  %10 = load ptr, ptr %0, align 8
  %11 = getelementptr inbounds i8, ptr %10, i64 48
  %12 = load ptr, ptr %11, align 8
  tail call void %12(ptr noundef nonnull align 8 dereferenceable(8) %0, ptr nonnull %1, i64 1, ptr %2)
  %13 = load ptr, ptr %0, align 8
  %14 = getelementptr inbounds i8, ptr %13, i64 24
  %15 = load ptr, ptr %14, align 8
  %16 = tail call ptr %15(ptr noundef nonnull align 8 dereferenceable(8) %0, ptr noundef nonnull align 8 dereferenceable(40) %1)
  br label %17

17:                                               ; preds = %9, %3
  %.sroa.06.0 = phi ptr [ %8, %3 ], [ %16, %9 ]
  store i32 26, ptr %4, align 8
  %18 = getelementptr inbounds i8, ptr %4, i64 8
  store ptr @.str, ptr %18, align 8
  %19 = icmp ne ptr %.sroa.06.0, null
  invoke void @_ZN5vcpkg6Checks10check_exitERKNS_8LineInfoEbNS_10StringViewE(ptr noundef nonnull align 8 dereferenceable(16) %4, i1 noundef zeroext %19, ptr nonnull @.str.1, i64 14)
          to label %_ZNR5vcpkg8OptionalIRKSt13unordered_mapINSt7__cxx1112basic_stringIcSt11char_traitsIcESaIcEEES7_St4hashIS7_ESt8equal_toIS7_ESaISt4pairIKS7_S7_EEEE13value_or_exitERKNS_8LineInfoE.exit unwind label %20

20:                                               ; preds = %17
  %21 = landingpad { ptr, i32 }
          catch ptr null
  %22 = extractvalue { ptr, i32 } %21, 0
  call void @__clang_call_terminate(ptr %22) #17
  unreachable

_ZNR5vcpkg8OptionalIRKSt13unordered_mapINSt7__cxx1112basic_stringIcSt11char_traitsIcESaIcEEES7_St4hashIS7_ESt8equal_toIS7_ESaISt4pairIKS7_S7_EEEE13value_or_exitERKNS_8LineInfoE.exit: ; preds = %17
  ret ptr %.sroa.06.0
}